target datalayout = "e-m:e-p270:32:32-p271:32:32-p272:64:64-i64:64-i128:128-f80:128-n8:16:32:64-S128"
target triple = "x86_64-pc-linux-gnu"

%struct.WOLFSSL = type <{ ptr, ptr, ptr, ptr, [48 x i8], [48 x i8], ptr, ptr, ptr, ptr, ptr, ptr, ptr, ptr, ptr, ptr, ptr, ptr, ptr, i32, [4 x i8], %struct.WOLFSSL_CIPHER, ptr, %struct.Ciphers, %struct.Ciphers, [8 x i8], %struct.Buffers, ptr, ptr, %struct.WOLFSSL_ALERT_HISTORY, %struct.WOLFSSL_ALERT, i32, i32, i32, i32, i32, i32, i32, i16, [2 x i8], i32, i8, %struct.RecordLayerHeader, %struct.MsgsReceived, %struct.ProtocolVersion, %struct.ProtocolVersion, %struct.CipherSpecs, [2 x i8], %struct.Keys, %struct.Options, ptr, i8, i8, i16, [10 x i16], i8, i8, i16, i16, [38 x i8], i32, i32, [4 x i8], ptr, i8, i8, [6 x i8], ptr, ptr, i16, i8, i8, i32, i8, [3 x i8], i32, %struct.OneTimeAuth, ptr }>
%struct.WOLFSSL_CIPHER = type { i8, i8, ptr }
%struct.Ciphers = type { ptr, ptr, ptr, ptr, i8, i8 }
%struct.Buffers = type { %struct.bufferStatic, %struct.bufferStatic, %struct.WOLFSSL_BUFFER_INFO, %struct.WOLFSSL_BUFFER_INFO, %struct.WOLFSSL_BUFFER_INFO, %struct.WOLFSSL_BUFFER_INFO, i32, i32, i8, i8, i8, i8, %struct.WOLFSSL_BUFFER_INFO, %struct.WOLFSSL_BUFFER_INFO, %struct.WOLFSSL_BUFFER_INFO, %struct.WOLFSSL_BUFFER_INFO, ptr, ptr, ptr, i8, i8, i32, i32, ptr, i32, [1 x ptr] }
%struct.bufferStatic = type { [5 x i8], ptr, i32, i32, i32, i8, i8 }
%struct.WOLFSSL_BUFFER_INFO = type { ptr, i32 }
%struct.WOLFSSL_ALERT_HISTORY = type { %struct.WOLFSSL_ALERT, %struct.WOLFSSL_ALERT }
%struct.WOLFSSL_ALERT = type { i32, i32 }
%struct.RecordLayerHeader = type { i8, i8, i8, [2 x i8] }
%struct.MsgsReceived = type { i32 }
%struct.ProtocolVersion = type { i8, i8 }
%struct.CipherSpecs = type { i16, i16, i16, i16, i8, i8, i8, i8, i8, i8, i8, i8 }
%struct.Keys = type { [64 x i8], [64 x i8], [32 x i8], [32 x i8], [16 x i8], [16 x i8], [8 x i8], [12 x i8], [12 x i8], i32, i32, i32, i32, i32, i32, i8, i8, i8, i8 }
%struct.Options = type { i64, i64, i8, i8, i8, i8, i8, i8, i8, i8, i8, i8, i8, i8, i8, i8, i8, i8, i8, i8, i8, i8, i8, i16, i16, i16, i16, i16, i8 }
%struct.OneTimeAuth = type { ptr, i8 }

; Function Attrs: nounwind uwtable
define internal i32 @SetAuthKeys(ptr noundef %0, ptr noundef %1, ptr noundef %2, ptr noundef %3, i32 noundef %4) #0 {
  %6 = alloca i32, align 4
  %7 = alloca ptr, align 8
  %8 = alloca ptr, align 8
  %9 = alloca ptr, align 8
  %10 = alloca ptr, align 8
  %11 = alloca i32, align 4
  store ptr %0, ptr %7, align 8, !tbaa !86
  store ptr %1, ptr %8, align 8, !tbaa !70
  store ptr %2, ptr %9, align 8, !tbaa !52
  store ptr %3, ptr %10, align 8, !tbaa !72
  store i32 %4, ptr %11, align 4, !tbaa !45
  %12 = load ptr, ptr %7, align 8, !tbaa !86
  %13 = icmp ne ptr %12, null
  br i1 %13, label %14, label %23

14:                                               ; preds = %5
  %15 = load ptr, ptr %7, align 8, !tbaa !86
  %16 = getelementptr inbounds nuw %struct.OneTimeAuth, ptr %15, i32 0, i32 0
  %17 = load ptr, ptr %16, align 8, !tbaa !88
  %18 = icmp eq ptr %17, null
  br i1 %18, label %19, label %23

19:                                               ; preds = %14
  %20 = call ptr @wolfSSL_Malloc(i64 noundef 96)
  %21 = load ptr, ptr %7, align 8, !tbaa !86
  %22 = getelementptr inbounds nuw %struct.OneTimeAuth, ptr %21, i32 0, i32 0
  store ptr %20, ptr %22, align 8, !tbaa !88
  br label %23

23:                                               ; preds = %19, %14, %5
  %24 = load ptr, ptr %7, align 8, !tbaa !86
  %25 = icmp ne ptr %24, null
  br i1 %25, label %26, label %32

26:                                               ; preds = %23
  %27 = load ptr, ptr %7, align 8, !tbaa !86
  %28 = getelementptr inbounds nuw %struct.OneTimeAuth, ptr %27, i32 0, i32 0
  %29 = load ptr, ptr %28, align 8, !tbaa !88
  %30 = icmp eq ptr %29, null
  br i1 %30, label %31, label %32

31:                                               ; preds = %26
  store i32 -125, ptr %6, align 4
  br label %39

32:                                               ; preds = %26, %23
  %33 = load ptr, ptr %7, align 8, !tbaa !86
  %34 = icmp ne ptr %33, null
  br i1 %34, label %35, label %38

35:                                               ; preds = %32
  %36 = load ptr, ptr %7, align 8, !tbaa !86
  %37 = getelementptr inbounds nuw %struct.OneTimeAuth, ptr %36, i32 0, i32 1
  store i8 1, ptr %37, align 8, !tbaa !89
  br label %38

38:                                               ; preds = %35, %32
  store i32 0, ptr %6, align 4
  br label %39

39:                                               ; preds = %38, %31
  %40 = load i32, ptr %6, align 4
  ret i32 %40
}

; Function Attrs: nounwind uwtable
define i32 @SetKeysSide(ptr noundef %0, i32 noundef %1) #0 {
  %3 = alloca i32, align 4
  %4 = alloca ptr, align 8
  %5 = alloca i32, align 4
  %6 = alloca i32, align 4
  %7 = alloca i32, align 4
  %8 = alloca ptr, align 8
  %9 = alloca ptr, align 8
  %10 = alloca ptr, align 8
  %11 = alloca i32, align 4
  store ptr %0, ptr %4, align 8, !tbaa !3
  store i32 %1, ptr %5, align 4, !tbaa !45
  call void @llvm.lifetime.start.p0(i64 4, ptr %6) #5
  call void @llvm.lifetime.start.p0(i64 4, ptr %7) #5
  store i32 0, ptr %7, align 4, !tbaa !45
  call void @llvm.lifetime.start.p0(i64 8, ptr %8) #5
  store ptr null, ptr %8, align 8, !tbaa !68
  call void @llvm.lifetime.start.p0(i64 8, ptr %9) #5
  store ptr null, ptr %9, align 8, !tbaa !68
  call void @llvm.lifetime.start.p0(i64 8, ptr %10) #5
  %12 = load ptr, ptr %4, align 8, !tbaa !3
  %13 = getelementptr inbounds nuw %struct.WOLFSSL, ptr %12, i32 0, i32 48
  store ptr %13, ptr %10, align 8, !tbaa !70
  %14 = load i32, ptr %5, align 4, !tbaa !45
  switch i32 %14, label %26 [
    i32 1, label %15
    i32 2, label %18
    i32 3, label %21
  ]

15:                                               ; preds = %2
  %16 = load ptr, ptr %4, align 8, !tbaa !3
  %17 = getelementptr inbounds nuw %struct.WOLFSSL, ptr %16, i32 0, i32 23
  store ptr %17, ptr %8, align 8, !tbaa !68
  br label %27

18:                                               ; preds = %2
  %19 = load ptr, ptr %4, align 8, !tbaa !3
  %20 = getelementptr inbounds nuw %struct.WOLFSSL, ptr %19, i32 0, i32 24
  store ptr %20, ptr %9, align 8, !tbaa !68
  br label %27

21:                                               ; preds = %2
  %22 = load ptr, ptr %4, align 8, !tbaa !3
  %23 = getelementptr inbounds nuw %struct.WOLFSSL, ptr %22, i32 0, i32 23
  store ptr %23, ptr %8, align 8, !tbaa !68
  %24 = load ptr, ptr %4, align 8, !tbaa !3
  %25 = getelementptr inbounds nuw %struct.WOLFSSL, ptr %24, i32 0, i32 24
  store ptr %25, ptr %9, align 8, !tbaa !68
  br label %27

26:                                               ; preds = %2
  store i32 -173, ptr %3, align 4
  store i32 1, ptr %11, align 4
  br label %91

27:                                               ; preds = %21, %18, %15
  %28 = load ptr, ptr %4, align 8, !tbaa !3
  %29 = getelementptr inbounds nuw %struct.WOLFSSL, ptr %28, i32 0, i32 76
  %30 = getelementptr inbounds nuw %struct.OneTimeAuth, ptr %29, i32 0, i32 1
  %31 = load i8, ptr %30, align 8, !tbaa !81
  %32 = icmp ne i8 %31, 0
  br i1 %32, label %58, label %33

33:                                               ; preds = %27
  %34 = load ptr, ptr %4, align 8, !tbaa !3
  %35 = getelementptr inbounds nuw %struct.WOLFSSL, ptr %34, i32 0, i32 46
  %36 = getelementptr inbounds nuw %struct.CipherSpecs, ptr %35, i32 0, i32 4
  %37 = load i8, ptr %36, align 2, !tbaa !82
  %38 = zext i8 %37 to i32
  %39 = icmp eq i32 %38, 9
  br i1 %39, label %40, label %58

40:                                               ; preds = %33
  %41 = load ptr, ptr %4, align 8, !tbaa !3
  %42 = getelementptr inbounds nuw %struct.WOLFSSL, ptr %41, i32 0, i32 76
  %43 = load ptr, ptr %10, align 8, !tbaa !70
  %44 = load ptr, ptr %4, align 8, !tbaa !3
  %45 = getelementptr inbounds nuw %struct.WOLFSSL, ptr %44, i32 0, i32 46
  %46 = load ptr, ptr %4, align 8, !tbaa !3
  %47 = getelementptr inbounds nuw %struct.WOLFSSL, ptr %46, i32 0, i32 12
  %48 = load ptr, ptr %47, align 16, !tbaa !83
  %49 = load ptr, ptr %4, align 8, !tbaa !3
  %50 = getelementptr inbounds nuw %struct.WOLFSSL, ptr %49, i32 0, i32 75
  %51 = load i32, ptr %50, align 4, !tbaa !84
  %52 = call i32 @SetAuthKeys(ptr noundef %42, ptr noundef %43, ptr noundef %45, ptr noundef %48, i32 noundef %51)
  store i32 %52, ptr %6, align 4, !tbaa !45
  %53 = load i32, ptr %6, align 4, !tbaa !45
  %54 = icmp ne i32 %53, 0
  br i1 %54, label %55, label %57

55:                                               ; preds = %40
  %56 = load i32, ptr %6, align 4, !tbaa !45
  store i32 %56, ptr %3, align 4
  store i32 1, ptr %11, align 4
  br label %91

57:                                               ; preds = %40
  br label %58

58:                                               ; preds = %57, %33, %27
  %59 = load ptr, ptr %8, align 8, !tbaa !68
  %60 = load ptr, ptr %9, align 8, !tbaa !68
  %61 = load ptr, ptr %10, align 8, !tbaa !70
  %62 = load ptr, ptr %4, align 8, !tbaa !3
  %63 = getelementptr inbounds nuw %struct.WOLFSSL, ptr %62, i32 0, i32 46
  %64 = load ptr, ptr %4, align 8, !tbaa !3
  %65 = getelementptr inbounds nuw %struct.WOLFSSL, ptr %64, i32 0, i32 49
  %66 = getelementptr inbounds nuw %struct.Options, ptr %65, i32 0, i32 1
  %67 = load i64, ptr %66, align 8
  %68 = lshr i64 %67, 4
  %69 = and i64 %68, 3
  %70 = trunc i64 %69 to i16
  %71 = zext i16 %70 to i32
  %72 = load ptr, ptr %4, align 8, !tbaa !3
  %73 = getelementptr inbounds nuw %struct.WOLFSSL, ptr %72, i32 0, i32 12
  %74 = load ptr, ptr %73, align 16, !tbaa !83
  %75 = load ptr, ptr %4, align 8, !tbaa !3
  %76 = getelementptr inbounds nuw %struct.WOLFSSL, ptr %75, i32 0, i32 75
  %77 = load i32, ptr %76, align 4, !tbaa !84
  %78 = load ptr, ptr %4, align 8, !tbaa !3
  %79 = getelementptr inbounds nuw %struct.WOLFSSL, ptr %78, i32 0, i32 9
  %80 = load ptr, ptr %79, align 8, !tbaa !85
  %81 = load ptr, ptr %4, align 8, !tbaa !3
  %82 = getelementptr inbounds nuw %struct.WOLFSSL, ptr %81, i32 0, i32 49
  %83 = getelementptr inbounds nuw %struct.Options, ptr %82, i32 0, i32 1
  %84 = load i64, ptr %83, align 8
  %85 = lshr i64 %84, 16
  %86 = and i64 %85, 1
  %87 = trunc i64 %86 to i16
  %88 = zext i16 %87 to i32
  %89 = call i32 @SetKeys(ptr noundef %59, ptr noundef %60, ptr noundef %61, ptr noundef %63, i32 noundef %71, ptr noundef %74, i32 noundef %77, ptr noundef %80, i32 noundef %88)
  store i32 %89, ptr %6, align 4, !tbaa !45
  %90 = load i32, ptr %6, align 4, !tbaa !45
  store i32 %90, ptr %3, align 4
  store i32 1, ptr %11, align 4
  br label %91

91:                                               ; preds = %58, %55, %26
  call void @llvm.lifetime.end.p0(i64 8, ptr %10) #5
  call void @llvm.lifetime.end.p0(i64 8, ptr %9) #5
  call void @llvm.lifetime.end.p0(i64 8, ptr %8) #5
  call void @llvm.lifetime.end.p0(i64 4, ptr %7) #5
  call void @llvm.lifetime.end.p0(i64 4, ptr %6) #5
  %92 = load i32, ptr %3, align 4
  ret i32 %92
}