; Function Attrs: nounwind uwtable
define i32 @SetKeysSide(ptr noundef %0, i32 noundef %1) local_unnamed_addr #0 {
  %3 = getelementptr inbounds nuw i8, ptr %0, i64 732
  switch i32 %1, label %SetAuthKeys.exit [
    i32 1, label %4
    i32 2, label %6
    i32 3, label %8
  ]

4:                                                ; preds = %2
  %5 = getelementptr inbounds nuw i8, ptr %0, i64 264
  br label %11

6:                                                ; preds = %2
  %7 = getelementptr inbounds nuw i8, ptr %0, i64 304
  br label %11

8:                                                ; preds = %2
  %9 = getelementptr inbounds nuw i8, ptr %0, i64 264
  %10 = getelementptr inbounds nuw i8, ptr %0, i64 304
  br label %11

11:                                               ; preds = %8, %6, %4
  %.026 = phi ptr [ %9, %8 ], [ null, %6 ], [ %5, %4 ]
  %.025 = phi ptr [ %10, %8 ], [ %7, %6 ], [ null, %4 ]
  %12 = getelementptr inbounds nuw i8, ptr %0, i64 1208
  %13 = getelementptr inbounds nuw i8, ptr %0, i64 1216
  %14 = load i8, ptr %13, align 8, !tbaa !67
  %.not = icmp eq i8 %14, 0
  br i1 %.not, label %15, label %25

15:                                               ; preds = %11
  %16 = getelementptr inbounds nuw i8, ptr %0, i64 722
  %17 = load i8, ptr %16, align 2, !tbaa !68
  %18 = icmp eq i8 %17, 9
  br i1 %18, label %19, label %25

19:                                               ; preds = %15
  %20 = load ptr, ptr %12, align 8, !tbaa !69
  %21 = icmp eq ptr %20, null
  br i1 %21, label %22, label %SetAuthKeys.exit.thread

22:                                               ; preds = %19
  %23 = tail call ptr @wolfSSL_Malloc(i64 noundef 96) #7
  store ptr %23, ptr %12, align 8, !tbaa !69
  %24 = icmp eq ptr %23, null
  br i1 %24, label %SetAuthKeys.exit, label %SetAuthKeys.exit.thread

SetAuthKeys.exit.thread:                          ; preds = %19, %22
  store i8 1, ptr %13, align 8, !tbaa !70
  br label %25

25:                                               ; preds = %SetAuthKeys.exit.thread, %15, %11
  %26 = getelementptr inbounds nuw i8, ptr %0, i64 714
  %27 = getelementptr inbounds nuw i8, ptr %0, i64 1024
  %28 = load i64, ptr %27, align 8
  %29 = trunc i64 %28 to i32
  %30 = lshr i32 %29, 4
  %31 = and i32 %30, 3
  %32 = getelementptr inbounds nuw i8, ptr %0, i64 176
  %33 = load ptr, ptr %32, align 16, !tbaa !71
  %34 = getelementptr inbounds nuw i8, ptr %0, i64 1204
  %35 = load i32, ptr %34, align 4, !tbaa !72
  %36 = getelementptr inbounds nuw i8, ptr %0, i64 152
  %37 = load ptr, ptr %36, align 8, !tbaa !73
  %38 = lshr i32 %29, 16
  %39 = and i32 %38, 1
  %40 = tail call i32 @SetKeys(ptr noundef %.026, ptr noundef %.025, ptr noundef nonnull %3, ptr noundef nonnull %26, i32 noundef %31, ptr noundef %33, i32 noundef %35, ptr noundef %37, i32 noundef %39)
  br label %SetAuthKeys.exit

SetAuthKeys.exit:                                 ; preds = %22, %2, %25
  %.0 = phi i32 [ %40, %25 ], [ -173, %2 ], [ -125, %22 ]
  ret i32 %.0
}